; Function Attrs: nounwind uwtable
define dso_local void @_ZThn40_N6v8impl7RefBase8FinalizeEv(ptr noundef %this) unnamed_addr #8 align 2 {
entry:
  %0 = getelementptr inbounds i8, ptr %this, i64 -40
  %ownership_.i = getelementptr inbounds i8, ptr %this, i64 28
  %1 = load i32, ptr %ownership_.i, align 4
  %cmp.i = icmp eq i32 %1, 0
  %finalize_callback_.i.i = getelementptr inbounds i8, ptr %this, i64 -24
  %2 = load ptr, ptr %finalize_callback_.i.i, align 8
  %finalize_data_.i.i = getelementptr inbounds i8, ptr %this, i64 -16
  %3 = load ptr, ptr %finalize_data_.i.i, align 8
  %finalize_hint_.i.i = getelementptr inbounds i8, ptr %this, i64 -8
  %4 = load ptr, ptr %finalize_hint_.i.i, align 8
  tail call void @llvm.memset.p0.i64(ptr noundef nonnull align 8 dereferenceable(24) %finalize_callback_.i.i, i8 0, i64 24, i1 false)
  %prev_.i.i.i = getelementptr inbounds i8, ptr %this, i64 16
  %5 = load ptr, ptr %prev_.i.i.i, align 8
  %cmp.not.i.i.i = icmp eq ptr %5, null
  %next_4.phi.trans.insert.i.i.i = getelementptr inbounds i8, ptr %this, i64 8
  %.pre.i.i.i = load ptr, ptr %next_4.phi.trans.insert.i.i.i, align 8
  br i1 %cmp.not.i.i.i, label %if.end.i.i.i, label %if.then.i.i.i

if.then.i.i.i:                                    ; preds = %entry
  %next_3.i.i.i = getelementptr inbounds i8, ptr %5, i64 8
  store ptr %.pre.i.i.i, ptr %next_3.i.i.i, align 8
  br label %if.end.i.i.i

if.end.i.i.i:                                     ; preds = %if.then.i.i.i, %entry
  %cmp5.not.i.i.i = icmp eq ptr %.pre.i.i.i, null
  br i1 %cmp5.not.i.i.i, label %_ZN6v8impl10RefTracker6UnlinkEv.exit.i.i, label %if.then6.i.i.i

if.then6.i.i.i:                                   ; preds = %if.end.i.i.i
  %6 = load ptr, ptr %prev_.i.i.i, align 8
  %prev_9.i.i.i = getelementptr inbounds i8, ptr %.pre.i.i.i, i64 16
  store ptr %6, ptr %prev_9.i.i.i, align 8
  br label %_ZN6v8impl10RefTracker6UnlinkEv.exit.i.i

_ZN6v8impl10RefTracker6UnlinkEv.exit.i.i:         ; preds = %if.then6.i.i.i, %if.end.i.i.i
  tail call void @llvm.memset.p0.i64(ptr noundef nonnull align 8 dereferenceable(16) %next_4.phi.trans.insert.i.i.i, i8 0, i64 16, i1 false)
  %cmp.not.i.i = icmp eq ptr %2, null
  br i1 %cmp.not.i.i, label %if.end.i.i, label %if.then.i.i

if.then.i.i:                                      ; preds = %_ZN6v8impl10RefTracker6UnlinkEv.exit.i.i
  %env_.i.i = getelementptr inbounds i8, ptr %this, i64 -32
  %7 = load ptr, ptr %env_.i.i, align 8
  %vtable.i.i = load ptr, ptr %7, align 8
  %vfn.i.i = getelementptr inbounds i8, ptr %vtable.i.i, i64 8
  %8 = load ptr, ptr %vfn.i.i, align 8
  tail call void %8(ptr noundef nonnull align 8 dereferenceable(189) %7, ptr noundef nonnull %2, ptr noundef %3, ptr noundef %4) #24
  br label %if.end.i.i

if.end.i.i:                                       ; preds = %if.then.i.i, %_ZN6v8impl10RefTracker6UnlinkEv.exit.i.i
  br i1 %cmp.i, label %delete.notnull.i.i, label %_ZN6v8impl7RefBase8FinalizeEv.exit

delete.notnull.i.i:                               ; preds = %if.end.i.i
  %vtable3.i.i = load ptr, ptr %0, align 8
  %vfn4.i.i = getelementptr inbounds i8, ptr %vtable3.i.i, i64 8
  %9 = load ptr, ptr %vfn4.i.i, align 8
  tail call void %9(ptr noundef nonnull align 8 dereferenceable(64) %0) #24
  br label %_ZN6v8impl7RefBase8FinalizeEv.exit

_ZN6v8impl7RefBase8FinalizeEv.exit:               ; preds = %if.end.i.i, %delete.notnull.i.i
  ret void
}